; Function Attrs: nounwind uwtable
define dso_local void @SlabDelete(ptr noundef captures(address) %0) local_unnamed_addr #0 {
  %2 = getelementptr inbounds nuw i8, ptr %0, i64 104
  %3 = getelementptr inbounds nuw i8, ptr %0, i64 112
  %4 = load ptr, ptr %3, align 8
  %.not.i = icmp eq ptr %4, null
  %.not333743.i = icmp eq ptr %4, %2
  %.not3337.i = select i1 %.not.i, i1 true, i1 %.not333743.i
  br i1 %.not3337.i, label %.preheader.i, label %.lr.ph.i

.lr.ph.i:                                         ; preds = %1
  %5 = getelementptr inbounds nuw i8, ptr %0, i64 120
  %6 = getelementptr inbounds nuw i8, ptr %0, i64 88
  %7 = getelementptr inbounds nuw i8, ptr %0, i64 8
  br label %11

.preheader.i:                                     ; preds = %11, %1
  %8 = getelementptr inbounds nuw i8, ptr %0, i64 128
  %9 = getelementptr inbounds nuw i8, ptr %0, i64 88
  %10 = getelementptr inbounds nuw i8, ptr %0, i64 8
  br label %22

11:                                               ; preds = %11, %.lr.ph.i
  %.sroa.0.038.i = phi ptr [ %4, %.lr.ph.i ], [ %.sroa.16.0.i, %11 ]
  %.sroa.16.0.in.i = getelementptr inbounds nuw i8, ptr %.sroa.0.038.i, i64 8
  %.sroa.16.0.i = load ptr, ptr %.sroa.16.0.in.i, align 8
  %12 = getelementptr inbounds i8, ptr %.sroa.0.038.i, i64 -32
  %13 = load ptr, ptr %.sroa.0.038.i, align 8
  %14 = getelementptr inbounds nuw i8, ptr %13, i64 8
  store ptr %.sroa.16.0.i, ptr %14, align 8
  %15 = load ptr, ptr %.sroa.0.038.i, align 8
  store ptr %15, ptr %.sroa.16.0.i, align 8
  %16 = load i32, ptr %5, align 8
  %17 = add i32 %16, -1
  store i32 %17, ptr %5, align 8
  tail call void @free(ptr noundef nonnull %12) #13
  %18 = load i32, ptr %6, align 8
  %19 = zext i32 %18 to i64
  %20 = load i64, ptr %7, align 8
  %21 = sub i64 %20, %19
  store i64 %21, ptr %7, align 8
  %.not33.i = icmp eq ptr %.sroa.16.0.i, %2
  br i1 %.not33.i, label %.preheader.i, label %11, !llvm.loop !7

22:                                               ; preds = %._crit_edge.i, %.preheader.i
  %indvars.iv.i = phi i64 [ 0, %.preheader.i ], [ %indvars.iv.next.i, %._crit_edge.i ]
  %23 = getelementptr inbounds nuw [3 x %struct.dlist_head], ptr %8, i64 0, i64 %indvars.iv.i
  %24 = getelementptr inbounds nuw i8, ptr %23, i64 8
  %25 = load ptr, ptr %24, align 8
  %.not34.i = icmp eq ptr %25, null
  %.not353945.i = icmp eq ptr %25, %23
  %.not3539.i = or i1 %.not34.i, %.not353945.i
  br i1 %.not3539.i, label %._crit_edge.i, label %.lr.ph41.i

.lr.ph41.i:                                       ; preds = %22, %.lr.ph41.i
  %.sroa.0.140.i = phi ptr [ %.sroa.16.1.i, %.lr.ph41.i ], [ %25, %22 ]
  %.sroa.16.1.in.i = getelementptr inbounds nuw i8, ptr %.sroa.0.140.i, i64 8
  %.sroa.16.1.i = load ptr, ptr %.sroa.16.1.in.i, align 8
  %26 = getelementptr inbounds i8, ptr %.sroa.0.140.i, i64 -32
  %27 = load ptr, ptr %.sroa.0.140.i, align 8
  %28 = getelementptr inbounds nuw i8, ptr %27, i64 8
  store ptr %.sroa.16.1.i, ptr %28, align 8
  %29 = load ptr, ptr %.sroa.0.140.i, align 8
  store ptr %29, ptr %.sroa.16.1.i, align 8
  tail call void @free(ptr noundef nonnull %26) #13
  %30 = load i32, ptr %9, align 8
  %31 = zext i32 %30 to i64
  %32 = load i64, ptr %10, align 8
  %33 = sub i64 %32, %31
  store i64 %33, ptr %10, align 8
  %.not35.i = icmp eq ptr %.sroa.16.1.i, %23
  br i1 %.not35.i, label %._crit_edge.i, label %.lr.ph41.i, !llvm.loop !8

._crit_edge.i:                                    ; preds = %.lr.ph41.i, %22
  %indvars.iv.next.i = add nuw nsw i64 %indvars.iv.i, 1
  %exitcond.not.i = icmp eq i64 %indvars.iv.next.i, 3
  br i1 %exitcond.not.i, label %SlabReset.exit, label %22, !llvm.loop !9

SlabReset.exit:                                   ; preds = %._crit_edge.i
  tail call void @free(ptr noundef nonnull %0) #13
  ret void
}